(dp0
Vsource
p1
V*UNKNOWN*
p2
sVtree
p3
(dp4
Vchildren
p5
(lp6
(dp7
Vchildren
p8
(lp9
(dp10
Vcategory
p11
Vpersonality
p12
sVpercentage
p13
F0.14979622860283198
sVchildren
p14
(lp15
(dp16
Vcategory
p17
Vpersonality
p18
sVname
p19
VOpenness
p20
sVsampling_error
p21
F0.0503447424
sVid
p22
VOpenness
p23
sVpercentage
p24
F0.5302158140365638
sVchildren
p25
(lp26
(dp27
Vcategory
p28
Vpersonality
p29
sVpercentage
p30
F0.47053613413656625
sVid
p31
VAdventurousness
p32
sVsampling_error
p33
F0.044388585919999994
sVname
p34
VAdventurousness
p35
sa(dp36
Vcategory
p37
Vpersonality
p38
sVpercentage
p39
F0.018466744070567406
sVid
p40
VArtistic interests
p41
sVsampling_error
p42
F0.09150467896
sVname
p43
VArtistic interests
p44
sa(dp45
Vcategory
p46
Vpersonality
p47
sVpercentage
p48
F0.2693720266042174
sVid
p49
VEmotionality
p50
sVsampling_error
p51
F0.04087642816
sVname
p52
VEmotionality
p53
sa(dp54
Vcategory
p55
Vpersonality
p56
sVpercentage
p57
F0.5047725423239968
sVid
p58
VImagination
p59
sVsampling_error
p60
F0.0550909316
sVname
p61
VImagination
p62
sa(dp63
Vcategory
p64
Vpersonality
p65
sVpercentage
p66
F0.7676852305353833
sVid
p67
VIntellect
p68
sVsampling_error
p69
F0.04775897016
sVname
p70
VIntellect
p71
sa(dp72
Vcategory
p73
Vpersonality
p74
sVpercentage
p75
F0.4605497169149773
sVid
p76
VLiberalism
p77
sVsampling_error
p78
F0.07363731496
sVname
p79
VAuthority-challenging
p80
sasa(dp81
Vcategory
p82
Vpersonality
p83
sVname
p84
VConscientiousness
p85
sVsampling_error
p86
F0.06401286616
sVid
p87
VConscientiousness
p88
sVpercentage
p89
F0.14979622860283198
sVchildren
p90
(lp91
(dp92
Vcategory
p93
Vpersonality
p94
sVpercentage
p95
F0.345213780932347
sVid
p96
VAchievement striving
p97
sVsampling_error
p98
F0.08683434400000001
sVname
p99
VAchievement striving
p100
sa(dp101
Vcategory
p102
Vpersonality
p103
sVpercentage
p104
F0.6053705449473246
sVid
p105
VCautiousness
p106
sVsampling_error
p107
F0.07993176712
sVname
p108
VCautiousness
p109
sa(dp110
Vcategory
p111
Vpersonality
p112
sVpercentage
p113
F0.4297483949333972
sVid
p114
VDutifulness
p115
sVsampling_error
p116
F0.05344925432
sVname
p117
VDutifulness
p118
sa(dp119
Vcategory
p120
Vpersonality
p121
sVpercentage
p122
F0.3042115413621684
sVid
p123
VOrderliness
p124
sVsampling_error
p125
F0.0609965076
sVname
p126
VOrderliness
p127
sa(dp128
Vcategory
p129
Vpersonality
p130
sVpercentage
p131
F0.04247288411704753
sVid
p132
VSelf-discipline
p133
sVsampling_error
p134
F0.04164181208
sVname
p135
VSelf-discipline
p136
sa(dp137
Vcategory
p138
Vpersonality
p139
sVpercentage
p140
F0.6680800108897814
sVid
p141
VSelf-efficacy
p142
sVsampling_error
p143
F0.07991823184
sVname
p144
VSelf-efficacy
p145
sasa(dp146
Vcategory
p147
Vpersonality
p148
sVname
p149
VExtraversion
p150
sVsampling_error
p151
F0.04799139528
sVid
p152
VExtraversion
p153
sVpercentage
p154
F0.5951317241537668
sVchildren
p155
(lp156
(dp157
Vcategory
p158
Vpersonality
p159
sVpercentage
p160
F0.5576326217079697
sVid
p161
VActivity level
p162
sVsampling_error
p163
F0.067101036
sVname
p164
VActivity level
p165
sa(dp166
Vcategory
p167
Vpersonality
p168
sVpercentage
p169
F0.85771560209944
sVid
p170
VAssertiveness
p171
sVsampling_error
p172
F0.07139848488
sVname
p173
VAssertiveness
p174
sa(dp175
Vcategory
p176
Vpersonality
p177
sVpercentage
p178
F0.4013967728387806
sVid
p179
VCheerfulness
p180
sVsampling_error
p181
F0.08918313128000001
sVname
p182
VCheerfulness
p183
sa(dp184
Vcategory
p185
Vpersonality
p186
sVpercentage
p187
F0.3089818968215039
sVid
p188
VExcitement-seeking
p189
sVsampling_error
p190
F0.07360527832
sVname
p191
VExcitement-seeking
p192
sa(dp193
Vcategory
p194
Vpersonality
p195
sVpercentage
p196
F0.7895210751592536
sVid
p197
VFriendliness
p198
sVsampling_error
p199
F0.06568077136
sVname
p200
VOutgoing
p201
sa(dp202
Vcategory
p203
Vpersonality
p204
sVpercentage
p205
F0.4891841061785846
sVid
p206
VGregariousness
p207
sVsampling_error
p208
F0.05100482872
sVname
p209
VGregariousness
p210
sasa(dp211
Vcategory
p212
Vpersonality
p213
sVname
p214
VAgreeableness
p215
sVsampling_error
p216
F0.08590538040000001
sVid
p217
VAgreeableness
p218
sVpercentage
p219
F0.7859999790800185
sVchildren
p220
(lp221
(dp222
Vcategory
p223
Vpersonality
p224
sVpercentage
p225
F0.7700999210707599
sVid
p226
VAltruism
p227
sVsampling_error
p228
F0.06138094352
sVname
p229
VAltruism
p230
sa(dp231
Vcategory
p232
Vpersonality
p233
sVpercentage
p234
F0.5023535331142217
sVid
p235
VCooperation
p236
sVsampling_error
p237
F0.07079650848
sVname
p238
VCooperation
p239
sa(dp240
Vcategory
p241
Vpersonality
p242
sVpercentage
p243
F0.22146856164841527
sVid
p244
VModesty
p245
sVsampling_error
p246
F0.0472790072
sVname
p247
VModesty
p248
sa(dp249
Vcategory
p250
Vpersonality
p251
sVpercentage
p252
F0.6796991254695869
sVid
p253
VMorality
p254
sVsampling_error
p255
F0.0546963576
sVname
p256
VUncompromising
p257
sa(dp258
Vcategory
p259
Vpersonality
p260
sVpercentage
p261
F0.9410127300835036
sVid
p262
VSympathy
p263
sVsampling_error
p264
F0.08553935528
sVname
p265
VSympathy
p266
sa(dp267
Vcategory
p268
Vpersonality
p269
sVpercentage
p270
F0.6703059483985134
sVid
p271
VTrust
p272
sVsampling_error
p273
F0.04760567008
sVname
p274
VTrust
p275
sasa(dp276
Vcategory
p277
Vpersonality
p278
sVname
p279
VEmotional range
p280
sVsampling_error
p281
F0.07810907351999999
sVid
p282
VNeuroticism
p283
sVpercentage
p284
F0.5630544285083573
sVchildren
p285
(lp286
(dp287
Vcategory
p288
Vpersonality
p289
sVpercentage
p290
F0.6684431501282433
sVid
p291
VAnger
p292
sVsampling_error
p293
F0.08261498784
sVname
p294
VFiery
p295
sa(dp296
Vcategory
p297
Vpersonality
p298
sVpercentage
p299
F0.3514448822043031
sVid
p300
VAnxiety
p301
sVsampling_error
p302
F0.046773830079999995
sVname
p303
VProne to worry
p304
sa(dp305
Vcategory
p306
Vpersonality
p307
sVpercentage
p308
F0.4262127118084993
sVid
p309
VDepression
p310
sVsampling_error
p311
F0.04896986656
sVname
p312
VMelancholy
p313
sa(dp314
Vcategory
p315
Vpersonality
p316
sVpercentage
p317
F0.13873476383887162
sVid
p318
VImmoderation
p319
sVsampling_error
p320
F0.04591024864
sVname
p321
VImmoderation
p322
sa(dp323
Vcategory
p324
Vpersonality
p325
sVpercentage
p326
F0.3736241157105487
sVid
p327
VSelf-consciousness
p328
sVsampling_error
p329
F0.04797480368
sVname
p330
VSelf-consciousness
p331
sa(dp332
Vcategory
p333
Vpersonality
p334
sVpercentage
p335
F0.5025910420371147
sVid
p336
VVulnerability
p337
sVsampling_error
p338
F0.07311306816
sVname
p339
VSusceptible to stress
p340
sasasVid
p341
VConscientiousness_parent
p342
sVname
p343
VConscientiousness
p344
sasVid
p345
Vpersonality
p346
sVname
p347
VBig 5
p348
sa(dp349
Vchildren
p350
(lp351
(dp352
Vcategory
p353
Vneeds
p354
sVpercentage
p355
F0.013387985111904152
sVchildren
p356
(lp357
(dp358
Vcategory
p359
Vneeds
p360
sVpercentage
p361
F0.1067151821443591
sVid
p362
VChallenge
p363
sVsampling_error
p364
F0.07154430751999999
sVname
p365
VChallenge
p366
sa(dp367
Vcategory
p368
Vneeds
p369
sVpercentage
p370
F0.24513786930851503
sVid
p371
VCloseness
p372
sVsampling_error
p373
F0.07117172383999999
sVname
p374
VCloseness
p375
sa(dp376
Vcategory
p377
Vneeds
p378
sVpercentage
p379
F0.09095305069811743
sVid
p380
VCuriosity
p381
sVsampling_error
p382
F0.09992763448
sVname
p383
VCuriosity
p384
sa(dp385
Vcategory
p386
Vneeds
p387
sVpercentage
p388
F0.20621343060909253
sVid
p389
VExcitement
p390
sVsampling_error
p391
F0.08978699847999999
sVname
p392
VExcitement
p393
sa(dp394
Vcategory
p395
Vneeds
p396
sVpercentage
p397
F0.8550079871060234
sVid
p398
VHarmony
p399
sVsampling_error
p400
F0.08945475848000001
sVname
p401
VHarmony
p402
sa(dp403
Vcategory
p404
Vneeds
p405
sVpercentage
p406
F0.013387985111904152
sVid
p407
VIdeal
p408
sVsampling_error
p409
F0.08209309096
sVname
p410
VIdeal
p411
sa(dp412
Vcategory
p413
Vneeds
p414
sVpercentage
p415
F0.35569768683659087
sVid
p416
VLiberty
p417
sVsampling_error
p418
F0.12185766832
sVname
p419
VLiberty
p420
sa(dp421
Vcategory
p422
Vneeds
p423
sVpercentage
p424
F0.9011175467032799
sVid
p425
VLove
p426
sVsampling_error
p427
F0.08209467696
sVname
p428
VLove
p429
sa(dp430
Vcategory
p431
Vneeds
p432
sVpercentage
p433
F0.9558405476676484
sVid
p434
VPracticality
p435
sVsampling_error
p436
F0.07283412736
sVname
p437
VPracticality
p438
sa(dp439
Vcategory
p440
Vneeds
p441
sVpercentage
p442
F0.03642344967820153
sVid
p443
VSelf-expression
p444
sVsampling_error
p445
F0.06990093808
sVname
p446
VSelf-expression
p447
sa(dp448
Vcategory
p449
Vneeds
p450
sVpercentage
p451
F0.10938335910498855
sVid
p452
VStability
p453
sVsampling_error
p454
F0.08929864744
sVname
p455
VStability
p456
sa(dp457
Vcategory
p458
Vneeds
p459
sVpercentage
p460
F0.1093337946377682
sVid
p461
VStructure
p462
sVsampling_error
p463
F0.06769201912
sVname
p464
VStructure
p465
sasVid
p466
VIdeal_parent
p467
sVname
p468
VIdeal
p469
sasVid
p470
Vneeds
p471
sVname
p472
VNeeds
p473
sa(dp474
Vchildren
p475
(lp476
(dp477
Vcategory
p478
Vvalues
p479
sVpercentage
p480
F0.9879919838311786
sVchildren
p481
(lp482
(dp483
Vcategory
p484
Vvalues
p485
sVpercentage
p486
F0.03392880441612692
sVid
p487
VConservation
p488
sVsampling_error
p489
F0.06219014504
sVname
p490
VConservation
p491
sa(dp492
Vcategory
p493
Vvalues
p494
sVpercentage
p495
F0.8681493733025986
sVid
p496
VOpenness to change
p497
sVsampling_error
p498
F0.05667154144
sVname
p499
VOpenness to change
p500
sa(dp501
Vcategory
p502
Vvalues
p503
sVpercentage
p504
F0.03612747592148354
sVid
p505
VHedonism
p506
sVsampling_error
p507
F0.1127892232
sVname
p508
VHedonism
p509
sa(dp510
Vcategory
p511
Vvalues
p512
sVpercentage
p513
F0.5195912929794368
sVid
p514
VSelf-enhancement
p515
sVsampling_error
p516
F0.08627998496
sVname
p517
VSelf-enhancement
p518
sa(dp519
Vcategory
p520
Vvalues
p521
sVpercentage
p522
F0.9879919838311786
sVid
p523
VSelf-transcendence
p524
sVsampling_error
p525
F0.06492301808
sVname
p526
VSelf-transcendence
p527
sasVid
p528
VSelf-transcendence_parent
p529
sVname
p530
VSelf-transcendence
p531
sasVid
p532
Vvalues
p533
sVname
p534
VValues
p535
sasVid
p536
Vr
p537
sVname
p538
Vroot
p539
ssVid
p540
V*UNKNOWN*
p541
sVword_count
p542
I7066
sVprocessed_lang
p543
Ven
p544
s.